target datalayout = "e-m:e-p270:32:32-p271:32:32-p272:64:64-i64:64-i128:128-f80:128-n8:16:32:64-S128"
target triple = "x86_64-pc-linux-gnu"

%"class.std::chrono::duration" = type { i64 }
%"class.std::chrono::duration.13" = type { i64 }
%"class.google::LogMessage" = type { ptr, ptr, %"struct.google::LogMessageTime" }
%"struct.google::LogMessageTime" = type { %struct.tm, %"class.std::chrono::time_point", %"class.std::chrono::duration.15", %"class.std::chrono::duration.16" }
%struct.tm = type { i32, i32, i32, i32, i32, i32, i32, i32, i32, i64, ptr }
%"class.std::chrono::time_point" = type { %"class.std::chrono::duration.14" }
%"class.std::chrono::duration.14" = type { i64 }
%"class.std::chrono::duration.15" = type { i64 }
%"class.std::chrono::duration.16" = type { i64 }

@.str.25 = private unnamed_addr constant [132 x i8] c"generated/home/dtcxzyw/WorkSpace/Projects/compilers/llvm-opt-benchmark/bench/glog/glog/src/cleanup_with_absolute_prefix_unittest.cc\00", align 1
@.str.26 = private unnamed_addr constant [8 x i8] c".barfoo\00", align 1
@.str.27 = private unnamed_addr constant [14 x i8] c"test_cleanup_\00", align 1
@.str.28 = private unnamed_addr constant [13 x i8] c"cleanup test\00", align 1

; Function Attrs: mustprogress nounwind uwtable
define linkonce_odr hidden void @_ZNSt6chrono8durationIlSt5ratioILl60ELl1EEEC2IlvEERKT_(ptr noundef nonnull align 8 dereferenceable(8) %0, ptr noundef nonnull align 8 dereferenceable(8) %1) unnamed_addr #2 comdat align 2 {
  %3 = alloca ptr, align 8
  %4 = alloca ptr, align 8
  store ptr %0, ptr %3, align 8
  store ptr %1, ptr %4, align 8
  %5 = load ptr, ptr %3, align 8
  %6 = getelementptr inbounds %"class.std::chrono::duration", ptr %5, i32 0, i32 0
  %7 = load ptr, ptr %4, align 8
  %8 = load i64, ptr %7, align 8
  store i64 %8, ptr %6, align 8
  ret void
}

; Function Attrs: mustprogress nounwind uwtable
define linkonce_odr hidden noundef i64 @_ZNKSt6chrono8durationIlSt5ratioILl3600ELl1EEE5countEv(ptr noundef nonnull align 8 dereferenceable(8) %0) #2 comdat align 2 {
  %2 = alloca ptr, align 8
  store ptr %0, ptr %2, align 8
  %3 = load ptr, ptr %2, align 8
  %4 = getelementptr inbounds %"class.std::chrono::duration.13", ptr %3, i32 0, i32 0
  %5 = load i64, ptr %4, align 8
  ret i64 %5
}

; Function Attrs: mustprogress uwtable
define linkonce_odr hidden i64 @_ZNSt6chrono20__duration_cast_implINS_8durationIlSt5ratioILl60ELl1EEEES3_lLb0ELb1EE6__castIlS2_ILl3600ELl1EEEES4_RKNS1_IT_T0_EE(ptr noundef nonnull align 8 dereferenceable(8) %0) #0 comdat align 2 {
  %2 = alloca %"class.std::chrono::duration", align 8
  %3 = alloca ptr, align 8
  %4 = alloca i64, align 8
  store ptr %0, ptr %3, align 8
  %5 = load ptr, ptr %3, align 8
  %6 = call noundef i64 @_ZNKSt6chrono8durationIlSt5ratioILl3600ELl1EEE5countEv(ptr noundef nonnull align 8 dereferenceable(8) %5)
  %7 = mul nsw i64 %6, 60
  store i64 %7, ptr %4, align 8
  call void @_ZNSt6chrono8durationIlSt5ratioILl60ELl1EEEC2IlvEERKT_(ptr noundef nonnull align 8 dereferenceable(8) %2, ptr noundef nonnull align 8 dereferenceable(8) %4)
  %8 = getelementptr inbounds %"class.std::chrono::duration", ptr %2, i32 0, i32 0
  %9 = load i64, ptr %8, align 8
  ret i64 %9
}

; Function Attrs: mustprogress nounwind uwtable
define linkonce_odr hidden void @_ZNSt6chrono8durationIlSt5ratioILl3600ELl1EEEC2IlvEERKT_(ptr noundef nonnull align 8 dereferenceable(8) %0, ptr noundef nonnull align 8 dereferenceable(8) %1) unnamed_addr #2 comdat align 2 {
  %3 = alloca ptr, align 8
  %4 = alloca ptr, align 8
  store ptr %0, ptr %3, align 8
  store ptr %1, ptr %4, align 8
  %5 = load ptr, ptr %3, align 8
  %6 = getelementptr inbounds %"class.std::chrono::duration.13", ptr %5, i32 0, i32 0
  %7 = load ptr, ptr %4, align 8
  %8 = load i64, ptr %7, align 8
  store i64 %8, ptr %6, align 8
  ret void
}

; Function Attrs: mustprogress nounwind uwtable
define linkonce_odr hidden noundef i64 @_ZNKSt6chrono8durationIlSt5ratioILl60ELl1EEE5countEv(ptr noundef nonnull align 8 dereferenceable(8) %0) #2 comdat align 2 {
  %2 = alloca ptr, align 8
  store ptr %0, ptr %2, align 8
  %3 = load ptr, ptr %2, align 8
  %4 = getelementptr inbounds %"class.std::chrono::duration", ptr %3, i32 0, i32 0
  %5 = load i64, ptr %4, align 8
  ret i64 %5
}

; Function Attrs: mustprogress uwtable
define linkonce_odr dso_local i64 @_ZNSt6chrono13duration_castINS_8durationIlSt5ratioILl60ELl1EEEElS2_ILl3600ELl1EEEENSt9enable_ifIXsr13__is_durationIT_EE5valueES7_E4typeERKNS1_IT0_T1_EE(ptr noundef nonnull align 8 dereferenceable(8) %0) #0 comdat {
  %2 = alloca %"class.std::chrono::duration", align 8
  %3 = alloca ptr, align 8
  store ptr %0, ptr %3, align 8
  %4 = load ptr, ptr %3, align 8
  %5 = call i64 @_ZNSt6chrono20__duration_cast_implINS_8durationIlSt5ratioILl60ELl1EEEES3_lLb0ELb1EE6__castIlS2_ILl3600ELl1EEEES4_RKNS1_IT_T0_EE(ptr noundef nonnull align 8 dereferenceable(8) %4)
  %6 = getelementptr inbounds %"class.std::chrono::duration", ptr %2, i32 0, i32 0
  store i64 %5, ptr %6, align 8
  %7 = getelementptr inbounds %"class.std::chrono::duration", ptr %2, i32 0, i32 0
  %8 = load i64, ptr %7, align 8
  ret i64 %8
}

; Function Attrs: mustprogress uwtable
define linkonce_odr dso_local i64 @_ZNSt8literals15chrono_literals16__check_overflowINSt6chrono8durationIlSt5ratioILl3600ELl1EEEEJLc48EEEET_v() #0 comdat {
  %1 = alloca %"class.std::chrono::duration.13", align 8
  %2 = alloca i64, align 8
  store i64 0, ptr %2, align 8
  call void @_ZNSt6chrono8durationIlSt5ratioILl3600ELl1EEEC2IlvEERKT_(ptr noundef nonnull align 8 dereferenceable(8) %1, ptr noundef nonnull align 8 dereferenceable(8) %2)
  %3 = getelementptr inbounds %"class.std::chrono::duration.13", ptr %1, i32 0, i32 0
  %4 = load i64, ptr %3, align 8
  ret i64 %4
}

; Function Attrs: mustprogress uwtable
define linkonce_odr hidden void @_ZNSt6chrono8durationIlSt5ratioILl60ELl1EEEC2IlS1_ILl3600ELl1EEvEERKNS0_IT_T0_EE(ptr noundef nonnull align 8 dereferenceable(8) %0, ptr noundef nonnull align 8 dereferenceable(8) %1) unnamed_addr #0 comdat align 2 {
  %3 = alloca ptr, align 8
  %4 = alloca ptr, align 8
  %5 = alloca %"class.std::chrono::duration", align 8
  store ptr %0, ptr %3, align 8
  store ptr %1, ptr %4, align 8
  %6 = load ptr, ptr %3, align 8
  %7 = getelementptr inbounds %"class.std::chrono::duration", ptr %6, i32 0, i32 0
  %8 = load ptr, ptr %4, align 8
  %9 = call i64 @_ZNSt6chrono13duration_castINS_8durationIlSt5ratioILl60ELl1EEEElS2_ILl3600ELl1EEEENSt9enable_ifIXsr13__is_durationIT_EE5valueES7_E4typeERKNS1_IT0_T1_EE(ptr noundef nonnull align 8 dereferenceable(8) %8)
  %10 = getelementptr inbounds %"class.std::chrono::duration", ptr %5, i32 0, i32 0
  store i64 %9, ptr %10, align 8
  %11 = call noundef i64 @_ZNKSt6chrono8durationIlSt5ratioILl60ELl1EEE5countEv(ptr noundef nonnull align 8 dereferenceable(8) %5)
  store i64 %11, ptr %7, align 8
  ret void
}

; Function Attrs: mustprogress uwtable
define linkonce_odr dso_local i64 @_ZNSt8literals15chrono_literalsli1hIJLc48EEEENSt6chrono8durationIlSt5ratioILl3600ELl1EEEEv() #0 comdat {
  %1 = alloca %"class.std::chrono::duration.13", align 8
  %2 = call i64 @_ZNSt8literals15chrono_literals16__check_overflowINSt6chrono8durationIlSt5ratioILl3600ELl1EEEEJLc48EEEET_v()
  %3 = getelementptr inbounds %"class.std::chrono::duration.13", ptr %1, i32 0, i32 0
  store i64 %2, ptr %3, align 8
  %4 = getelementptr inbounds %"class.std::chrono::duration.13", ptr %1, i32 0, i32 0
  %5 = load i64, ptr %4, align 8
  ret i64 %5
}

; Function Attrs: mustprogress uwtable
define hidden void @_ZN47CleanImmediatelyWithAbsolutePrefix_logging_Test8TestBodyEv(ptr noundef nonnull align 8 dereferenceable(16) %0) unnamed_addr #0 align 2 personality ptr @__gxx_personality_v0 {
  %2 = alloca ptr, align 8
  %3 = alloca %"class.std::chrono::duration", align 8
  %4 = alloca %"class.std::chrono::duration.13", align 8
  %5 = alloca i32, align 4
  %6 = alloca %"class.google::LogMessage", align 8
  %7 = alloca ptr, align 8
  %8 = alloca i32, align 4
  %9 = alloca i32, align 4
  %10 = alloca %"class.google::LogMessage", align 8
  store ptr %0, ptr %2, align 8
  %11 = call i64 @_ZNSt8literals15chrono_literalsli1hIJLc48EEEENSt6chrono8durationIlSt5ratioILl3600ELl1EEEEv()
  %12 = getelementptr inbounds %"class.std::chrono::duration.13", ptr %4, i32 0, i32 0
  store i64 %11, ptr %12, align 8
  call void @_ZNSt6chrono8durationIlSt5ratioILl60ELl1EEEC2IlS1_ILl3600ELl1EEvEERKNS0_IT_T0_EE(ptr noundef nonnull align 8 dereferenceable(8) %3, ptr noundef nonnull align 8 dereferenceable(8) %4)
  call void @_ZN6google16EnableLogCleanerERKNSt6chrono8durationIlSt5ratioILl60ELl1EEEE(ptr noundef nonnull align 8 dereferenceable(8) %3)
  call void @_ZN6google23SetLogFilenameExtensionEPKc(ptr noundef @.str.26)
  call void @_ZN6google17SetLogDestinationENS_11LogSeverityEPKc(i32 noundef 0, ptr noundef @.str.27)
  store i32 0, ptr %5, align 4
  br label %13

13:                                               ; preds = %21, %1
  %14 = load i32, ptr %5, align 4
  %15 = icmp ult i32 %14, 1000
  br i1 %15, label %16, label %29

16:                                               ; preds = %13
  call void @_ZN6google10LogMessageC1EPKci(ptr noundef nonnull align 8 dereferenceable(96) %6, ptr noundef @.str.25, i32 noundef 64)
  %17 = invoke noundef nonnull align 8 dereferenceable(8) ptr @_ZN6google10LogMessage6streamEv(ptr noundef nonnull align 8 dereferenceable(96) %6)
          to label %18 unwind label %24

18:                                               ; preds = %16
  %19 = invoke noundef nonnull align 8 dereferenceable(8) ptr @_ZStlsISt11char_traitsIcEERSt13basic_ostreamIcT_ES5_PKc(ptr noundef nonnull align 8 dereferenceable(8) %17, ptr noundef @.str.28)
          to label %20 unwind label %24

20:                                               ; preds = %18
  call void @_ZN6google10LogMessageD1Ev(ptr noundef nonnull align 8 dereferenceable(96) %6)
  br label %21

21:                                               ; preds = %20
  %22 = load i32, ptr %5, align 4
  %23 = add i32 %22, 1
  store i32 %23, ptr %5, align 4
  br label %13, !llvm.loop !5

24:                                               ; preds = %18, %16
  %25 = landingpad { ptr, i32 }
          cleanup
  %26 = extractvalue { ptr, i32 } %25, 0
  store ptr %26, ptr %7, align 8
  %27 = extractvalue { ptr, i32 } %25, 1
  store i32 %27, ptr %8, align 4
  invoke void @_ZN6google10LogMessageD1Ev(ptr noundef nonnull align 8 dereferenceable(96) %6)
          to label %28 unwind label %52

28:                                               ; preds = %24
  br label %47

29:                                               ; preds = %13
  store i32 0, ptr %9, align 4
  br label %30

30:                                               ; preds = %38, %29
  %31 = load i32, ptr %9, align 4
  %32 = icmp ult i32 %31, 10
  br i1 %32, label %33, label %46

33:                                               ; preds = %30
  call void @_ZN6google10LogMessageC1EPKciNS_11LogSeverityE(ptr noundef nonnull align 8 dereferenceable(96) %10, ptr noundef @.str.25, i32 noundef 68, i32 noundef 2)
  %34 = invoke noundef nonnull align 8 dereferenceable(8) ptr @_ZN6google10LogMessage6streamEv(ptr noundef nonnull align 8 dereferenceable(96) %10)
          to label %35 unwind label %41

35:                                               ; preds = %33
  %36 = invoke noundef nonnull align 8 dereferenceable(8) ptr @_ZStlsISt11char_traitsIcEERSt13basic_ostreamIcT_ES5_PKc(ptr noundef nonnull align 8 dereferenceable(8) %34, ptr noundef @.str.28)
          to label %37 unwind label %41

37:                                               ; preds = %35
  call void @_ZN6google10LogMessageD1Ev(ptr noundef nonnull align 8 dereferenceable(96) %10)
  br label %38

38:                                               ; preds = %37
  %39 = load i32, ptr %9, align 4
  %40 = add i32 %39, 1
  store i32 %40, ptr %9, align 4
  br label %30, !llvm.loop !7

41:                                               ; preds = %35, %33
  %42 = landingpad { ptr, i32 }
          cleanup
  %43 = extractvalue { ptr, i32 } %42, 0
  store ptr %43, ptr %7, align 8
  %44 = extractvalue { ptr, i32 } %42, 1
  store i32 %44, ptr %8, align 4
  invoke void @_ZN6google10LogMessageD1Ev(ptr noundef nonnull align 8 dereferenceable(96) %10)
          to label %45 unwind label %52

45:                                               ; preds = %41
  br label %47

46:                                               ; preds = %30
  call void @_ZN6google17DisableLogCleanerEv()
  ret void

47:                                               ; preds = %45, %28
  %48 = load ptr, ptr %7, align 8
  %49 = load i32, ptr %8, align 4
  %50 = insertvalue { ptr, i32 } poison, ptr %48, 0
  %51 = insertvalue { ptr, i32 } %50, i32 %49, 1
  resume { ptr, i32 } %51

52:                                               ; preds = %41, %24
  %53 = landingpad { ptr, i32 }
          catch ptr null
  %54 = extractvalue { ptr, i32 } %53, 0
  call void @__clang_call_terminate(ptr %54) #19
  unreachable
}