; Function Attrs: mustprogress uwtable
define hidden void @_ZN47CleanImmediatelyWithAbsolutePrefix_logging_Test8TestBodyEv(ptr nocapture nonnull readnone align 8 %0) unnamed_addr #0 align 2 personality ptr @__gxx_personality_v0 {
  %2 = alloca %"class.std::chrono::duration", align 8
  %3 = alloca %"class.google::LogMessage", align 8
  %4 = alloca %"class.google::LogMessage", align 8
  store i64 0, ptr %2, align 8
  call void @_ZN6google16EnableLogCleanerERKNSt6chrono8durationIlSt5ratioILl60ELl1EEEE(ptr noundef nonnull align 8 dereferenceable(8) %2)
  call void @_ZN6google23SetLogFilenameExtensionEPKc(ptr noundef nonnull @.str.26)
  call void @_ZN6google17SetLogDestinationENS_11LogSeverityEPKc(i32 noundef 0, ptr noundef nonnull @.str.27)
  br label %5

5:                                                ; preds = %1, %9
  %.079 = phi i32 [ 0, %1 ], [ %10, %9 ]
  call void @_ZN6google10LogMessageC1EPKci(ptr noundef nonnull align 8 dereferenceable(96) %3, ptr noundef nonnull @.str.25, i32 noundef 64)
  %6 = invoke noundef nonnull align 8 dereferenceable(8) ptr @_ZN6google10LogMessage6streamEv(ptr noundef nonnull align 8 dereferenceable(96) %3)
          to label %7 unwind label %11

7:                                                ; preds = %5
  %8 = invoke noundef nonnull align 8 dereferenceable(8) ptr @_ZStlsISt11char_traitsIcEERSt13basic_ostreamIcT_ES5_PKc(ptr noundef nonnull align 8 dereferenceable(8) %6, ptr noundef nonnull @.str.28)
          to label %9 unwind label %11

9:                                                ; preds = %7
  call void @_ZN6google10LogMessageD1Ev(ptr noundef nonnull align 8 dereferenceable(96) %3)
  %10 = add nuw nsw i32 %.079, 1
  %exitcond.not = icmp eq i32 %10, 1000
  br i1 %exitcond.not, label %.preheader, label %5, !llvm.loop !5

11:                                               ; preds = %7, %5
  %12 = landingpad { ptr, i32 }
          cleanup
  invoke void @_ZN6google10LogMessageD1Ev(ptr noundef nonnull align 8 dereferenceable(96) %3)
          to label %21 unwind label %22

.preheader:                                       ; preds = %9, %16
  %.010 = phi i32 [ %17, %16 ], [ 0, %9 ]
  call void @_ZN6google10LogMessageC1EPKciNS_11LogSeverityE(ptr noundef nonnull align 8 dereferenceable(96) %4, ptr noundef nonnull @.str.25, i32 noundef 68, i32 noundef 2)
  %13 = invoke noundef nonnull align 8 dereferenceable(8) ptr @_ZN6google10LogMessage6streamEv(ptr noundef nonnull align 8 dereferenceable(96) %4)
          to label %14 unwind label %18

14:                                               ; preds = %.preheader
  %15 = invoke noundef nonnull align 8 dereferenceable(8) ptr @_ZStlsISt11char_traitsIcEERSt13basic_ostreamIcT_ES5_PKc(ptr noundef nonnull align 8 dereferenceable(8) %13, ptr noundef nonnull @.str.28)
          to label %16 unwind label %18

16:                                               ; preds = %14
  call void @_ZN6google10LogMessageD1Ev(ptr noundef nonnull align 8 dereferenceable(96) %4)
  %17 = add nuw nsw i32 %.010, 1
  %exitcond11.not = icmp eq i32 %17, 10
  br i1 %exitcond11.not, label %20, label %.preheader, !llvm.loop !7

18:                                               ; preds = %14, %.preheader
  %19 = landingpad { ptr, i32 }
          cleanup
  invoke void @_ZN6google10LogMessageD1Ev(ptr noundef nonnull align 8 dereferenceable(96) %4)
          to label %21 unwind label %22

20:                                               ; preds = %16
  call void @_ZN6google17DisableLogCleanerEv()
  ret void

21:                                               ; preds = %18, %11
  %.pn = phi { ptr, i32 } [ %12, %11 ], [ %19, %18 ]
  resume { ptr, i32 } %.pn

22:                                               ; preds = %18, %11
  %23 = landingpad { ptr, i32 }
          catch ptr null
  %24 = extractvalue { ptr, i32 } %23, 0
  call void @__clang_call_terminate(ptr %24) #25
  unreachable
}